target datalayout = "e-m:e-p270:32:32-p271:32:32-p272:64:64-i64:64-i128:128-f80:128-n8:16:32:64-S128"
target triple = "x86_64-pc-linux-gnu"

%struct.HpelDSPContext = type { [4 x [4 x ptr]], [4 x [4 x ptr]], [4 x [4 x ptr]], [4 x ptr] }
%struct.AVCodecContext = type { ptr, i32, i32, ptr, i32, i32, ptr, ptr, ptr, i64, i32, i32, ptr, i32, %struct.AVRational, %struct.AVRational, %struct.AVRational, i32, i32, i32, i32, i32, %struct.AVRational, i32, i32, i32, i32, i32, i32, i32, i32, i32, i32, i32, ptr, ptr, i32, float, float, float, float, float, float, float, float, float, i32, i32, i32, i32, i32, i32, i32, i32, i32, i32, i32, i32, ptr, ptr, ptr, i32, i32, i32, i32, i32, i32, i32, i32, i32, i32, %struct.AVChannelLayout, i32, i32, i32, i32, i32, i32, i32, i32, ptr, i32, i32, i32, float, float, i32, i32, i32, i32, i32, ptr, i64, i64, float, float, i32, i32, ptr, ptr, i32, i32, i32, i32, i32, ptr, ptr, ptr, ptr, i32, i32, [8 x i64], i32, i32, i32, i32, i32, i32, i32, ptr, ptr, i32, i32, i32, i32, i32, i32, i32, i32, i32, i32, ptr, ptr, i32, i32, ptr, ptr, ptr, ptr, i32, i32, i64, i32, i32, i64, ptr, i64, ptr, i32, ptr, i32 }
%struct.AVRational = type { i32, i32 }
%struct.AVChannelLayout = type { i32, i32, %union.anon.0, ptr }
%union.anon.0 = type { i64 }
%struct.BinkContext = type { ptr, %struct.BlockDSPContext, ptr, %struct.BinkDSPContext, ptr, i32, i32, i32, i32, [10 x %struct.Bundle], [16 x %struct.Tree], i32 }
%struct.BlockDSPContext = type { ptr, ptr, [2 x ptr] }
%struct.BinkDSPContext = type { ptr, ptr, ptr, ptr }
%struct.Bundle = type { i32, %struct.Tree, ptr, ptr, ptr, ptr }
%struct.Tree = type { i32, [16 x i8] }

@decode_init.init_static_once = internal global i32 0, align 4
@.str.2 = private unnamed_addr constant [32 x i8] c"Extradata missing or too short\0A\00", align 1
@decode_init.binkb_init_once = internal global i32 0, align 4

; Function Attrs: cold nounwind optsize uwtable
define internal i32 @decode_init(ptr noundef %0) #0 {
  %2 = alloca i32, align 4
  %3 = alloca ptr, align 8
  %4 = alloca ptr, align 8
  %5 = alloca %struct.HpelDSPContext, align 8
  %6 = alloca i32, align 4
  %7 = alloca i32, align 4
  %8 = alloca i32, align 4
  store ptr %0, ptr %3, align 8, !tbaa !4
  call void @llvm.lifetime.start.p0(i64 8, ptr %4) #10
  %9 = load ptr, ptr %3, align 8, !tbaa !4
  %10 = getelementptr inbounds nuw %struct.AVCodecContext, ptr %9, i32 0, i32 6
  %11 = load ptr, ptr %10, align 8, !tbaa !9
  store ptr %11, ptr %4, align 8, !tbaa !29
  call void @llvm.lifetime.start.p0(i64 416, ptr %5) #10
  call void @llvm.lifetime.start.p0(i64 4, ptr %6) #10
  call void @llvm.lifetime.start.p0(i64 4, ptr %7) #10
  %12 = load ptr, ptr %3, align 8, !tbaa !4
  %13 = getelementptr inbounds nuw %struct.AVCodecContext, ptr %12, i32 0, i32 5
  %14 = load i32, ptr %13, align 4, !tbaa !31
  %15 = lshr i32 %14, 24
  %16 = load ptr, ptr %4, align 8, !tbaa !29
  %17 = getelementptr inbounds nuw %struct.BinkContext, ptr %16, i32 0, i32 5
  store i32 %15, ptr %17, align 8, !tbaa !32
  %18 = load ptr, ptr %3, align 8, !tbaa !4
  %19 = getelementptr inbounds nuw %struct.AVCodecContext, ptr %18, i32 0, i32 13
  %20 = load i32, ptr %19, align 8, !tbaa !37
  %21 = icmp slt i32 %20, 4
  br i1 %21, label %22, label %24

22:                                               ; preds = %1
  %23 = load ptr, ptr %3, align 8, !tbaa !4
  call void (ptr, i32, ptr, ...) @av_log(ptr noundef %23, i32 noundef 16, ptr noundef @.str.2)
  store i32 -1094995529, ptr %2, align 4
  store i32 1, ptr %8, align 4
  br label %105

24:                                               ; preds = %1
  %25 = load ptr, ptr %3, align 8, !tbaa !4
  %26 = getelementptr inbounds nuw %struct.AVCodecContext, ptr %25, i32 0, i32 12
  %27 = load ptr, ptr %26, align 8, !tbaa !38
  %28 = load i32, ptr %27, align 1, !tbaa !39
  store i32 %28, ptr %7, align 4, !tbaa !40
  %29 = load i32, ptr %7, align 4, !tbaa !40
  %30 = and i32 %29, 1048576
  %31 = load ptr, ptr %4, align 8, !tbaa !29
  %32 = getelementptr inbounds nuw %struct.BinkContext, ptr %31, i32 0, i32 6
  store i32 %30, ptr %32, align 4, !tbaa !41
  %33 = load ptr, ptr %4, align 8, !tbaa !29
  %34 = getelementptr inbounds nuw %struct.BinkContext, ptr %33, i32 0, i32 5
  %35 = load i32, ptr %34, align 8, !tbaa !32
  %36 = icmp sge i32 %35, 104
  %37 = zext i1 %36 to i32
  %38 = load ptr, ptr %4, align 8, !tbaa !29
  %39 = getelementptr inbounds nuw %struct.BinkContext, ptr %38, i32 0, i32 7
  store i32 %37, ptr %39, align 8, !tbaa !42
  %40 = load ptr, ptr %3, align 8, !tbaa !4
  %41 = load ptr, ptr %4, align 8, !tbaa !29
  %42 = getelementptr inbounds nuw %struct.BinkContext, ptr %41, i32 0, i32 0
  store ptr %40, ptr %42, align 8, !tbaa !43
  %43 = load ptr, ptr %3, align 8, !tbaa !4
  %44 = getelementptr inbounds nuw %struct.AVCodecContext, ptr %43, i32 0, i32 18
  %45 = load i32, ptr %44, align 8, !tbaa !44
  %46 = load ptr, ptr %3, align 8, !tbaa !4
  %47 = getelementptr inbounds nuw %struct.AVCodecContext, ptr %46, i32 0, i32 19
  %48 = load i32, ptr %47, align 4, !tbaa !45
  %49 = load ptr, ptr %3, align 8, !tbaa !4
  %50 = call i32 @av_image_check_size(i32 noundef %45, i32 noundef %48, i32 noundef 0, ptr noundef %49)
  store i32 %50, ptr %6, align 4, !tbaa !40
  %51 = icmp slt i32 %50, 0
  br i1 %51, label %52, label %54

52:                                               ; preds = %24
  %53 = load i32, ptr %6, align 4, !tbaa !40
  store i32 %53, ptr %2, align 4
  store i32 1, ptr %8, align 4
  br label %105

54:                                               ; preds = %24
  %55 = call ptr @av_frame_alloc()
  %56 = load ptr, ptr %4, align 8, !tbaa !29
  %57 = getelementptr inbounds nuw %struct.BinkContext, ptr %56, i32 0, i32 4
  store ptr %55, ptr %57, align 8, !tbaa !46
  %58 = load ptr, ptr %4, align 8, !tbaa !29
  %59 = getelementptr inbounds nuw %struct.BinkContext, ptr %58, i32 0, i32 4
  %60 = load ptr, ptr %59, align 8, !tbaa !46
  %61 = icmp ne ptr %60, null
  br i1 %61, label %63, label %62

62:                                               ; preds = %54
  store i32 -12, ptr %2, align 4
  store i32 1, ptr %8, align 4
  br label %105

63:                                               ; preds = %54
  %64 = load ptr, ptr %4, align 8, !tbaa !29
  %65 = getelementptr inbounds nuw %struct.BinkContext, ptr %64, i32 0, i32 6
  %66 = load i32, ptr %65, align 4, !tbaa !41
  %67 = icmp ne i32 %66, 0
  %68 = select i1 %67, i32 33, i32 0
  %69 = load ptr, ptr %3, align 8, !tbaa !4
  %70 = getelementptr inbounds nuw %struct.AVCodecContext, ptr %69, i32 0, i32 23
  store i32 %68, ptr %70, align 8, !tbaa !47
  %71 = load ptr, ptr %4, align 8, !tbaa !29
  %72 = getelementptr inbounds nuw %struct.BinkContext, ptr %71, i32 0, i32 5
  %73 = load i32, ptr %72, align 8, !tbaa !32
  %74 = icmp eq i32 %73, 107
  %75 = select i1 %74, i32 2, i32 1
  %76 = load ptr, ptr %3, align 8, !tbaa !4
  %77 = getelementptr inbounds nuw %struct.AVCodecContext, ptr %76, i32 0, i32 28
  store i32 %75, ptr %77, align 4, !tbaa !48
  %78 = load ptr, ptr %4, align 8, !tbaa !29
  %79 = getelementptr inbounds nuw %struct.BinkContext, ptr %78, i32 0, i32 1
  call void @ff_blockdsp_init(ptr noundef %79)
  %80 = load ptr, ptr %3, align 8, !tbaa !4
  %81 = getelementptr inbounds nuw %struct.AVCodecContext, ptr %80, i32 0, i32 10
  %82 = load i32, ptr %81, align 8, !tbaa !49
  call void @ff_hpeldsp_init(ptr noundef %5, i32 noundef %82)
  %83 = getelementptr inbounds nuw %struct.HpelDSPContext, ptr %5, i32 0, i32 0
  %84 = getelementptr inbounds [4 x [4 x ptr]], ptr %83, i64 0, i64 1
  %85 = getelementptr inbounds [4 x ptr], ptr %84, i64 0, i64 0
  %86 = load ptr, ptr %85, align 8, !tbaa !50
  %87 = load ptr, ptr %4, align 8, !tbaa !29
  %88 = getelementptr inbounds nuw %struct.BinkContext, ptr %87, i32 0, i32 2
  store ptr %86, ptr %88, align 8, !tbaa !51
  %89 = load ptr, ptr %4, align 8, !tbaa !29
  %90 = getelementptr inbounds nuw %struct.BinkContext, ptr %89, i32 0, i32 3
  call void @ff_binkdsp_init(ptr noundef %90)
  %91 = load ptr, ptr %4, align 8, !tbaa !29
  %92 = call i32 @init_bundles(ptr noundef %91) #11
  store i32 %92, ptr %6, align 4, !tbaa !40
  %93 = icmp slt i32 %92, 0
  br i1 %93, label %94, label %96

94:                                               ; preds = %63
  %95 = load i32, ptr %6, align 4, !tbaa !40
  store i32 %95, ptr %2, align 4
  store i32 1, ptr %8, align 4
  br label %105

96:                                               ; preds = %63
  %97 = load ptr, ptr %4, align 8, !tbaa !29
  %98 = getelementptr inbounds nuw %struct.BinkContext, ptr %97, i32 0, i32 5
  %99 = load i32, ptr %98, align 8, !tbaa !32
  %100 = icmp eq i32 %99, 98
  br i1 %100, label %101, label %103

101:                                              ; preds = %96
  %102 = call i32 @pthread_once(ptr noundef @decode_init.binkb_init_once, ptr noundef @binkb_calc_quant)
  br label %103

103:                                              ; preds = %101, %96
  %104 = call i32 @pthread_once(ptr noundef @decode_init.init_static_once, ptr noundef @bink_init_vlcs)
  store i32 0, ptr %2, align 4
  store i32 1, ptr %8, align 4
  br label %105

105:                                              ; preds = %103, %94, %62, %52, %22
  call void @llvm.lifetime.end.p0(i64 4, ptr %7) #10
  call void @llvm.lifetime.end.p0(i64 4, ptr %6) #10
  call void @llvm.lifetime.end.p0(i64 416, ptr %5) #10
  call void @llvm.lifetime.end.p0(i64 8, ptr %4) #10
  %106 = load i32, ptr %2, align 4
  ret i32 %106
}