; Function Attrs: cold nounwind optsize uwtable
define internal range(i32 -2147483648, 1) i32 @decode_init(ptr noundef %0) #0 {
  %2 = alloca %struct.HpelDSPContext, align 8
  %3 = getelementptr inbounds nuw i8, ptr %0, i64 32
  %4 = load ptr, ptr %3, align 8, !tbaa !4
  call void @llvm.lifetime.start.p0(i64 416, ptr nonnull %2) #11
  %5 = getelementptr inbounds nuw i8, ptr %0, i64 28
  %6 = load i32, ptr %5, align 4, !tbaa !27
  %7 = lshr i32 %6, 24
  %8 = getelementptr inbounds nuw i8, ptr %4, i64 88
  store i32 %7, ptr %8, align 8, !tbaa !28
  %9 = getelementptr inbounds nuw i8, ptr %0, i64 80
  %10 = load i32, ptr %9, align 8, !tbaa !34
  %11 = icmp slt i32 %10, 4
  br i1 %11, label %12, label %13

12:                                               ; preds = %1
  tail call void (ptr, i32, ptr, ...) @av_log(ptr noundef nonnull %0, i32 noundef 16, ptr noundef nonnull @.str.2) #11
  br label %55

13:                                               ; preds = %1
  %14 = getelementptr inbounds nuw i8, ptr %0, i64 72
  %15 = load ptr, ptr %14, align 8, !tbaa !35
  %16 = load i32, ptr %15, align 1, !tbaa !36
  %17 = and i32 %16, 1048576
  %18 = getelementptr inbounds nuw i8, ptr %4, i64 92
  store i32 %17, ptr %18, align 4, !tbaa !37
  %19 = icmp ugt i32 %6, 1744830463
  %20 = zext i1 %19 to i32
  %21 = getelementptr inbounds nuw i8, ptr %4, i64 96
  store i32 %20, ptr %21, align 8, !tbaa !38
  store ptr %0, ptr %4, align 8, !tbaa !39
  %22 = getelementptr inbounds nuw i8, ptr %0, i64 112
  %23 = load i32, ptr %22, align 8, !tbaa !40
  %24 = getelementptr inbounds nuw i8, ptr %0, i64 116
  %25 = load i32, ptr %24, align 4, !tbaa !41
  %26 = tail call i32 @av_image_check_size(i32 noundef %23, i32 noundef %25, i32 noundef 0, ptr noundef nonnull %0) #11
  %27 = icmp slt i32 %26, 0
  br i1 %27, label %55, label %28

28:                                               ; preds = %13
  %29 = tail call ptr @av_frame_alloc() #11
  %30 = getelementptr inbounds nuw i8, ptr %4, i64 80
  store ptr %29, ptr %30, align 8, !tbaa !42
  %.not = icmp eq ptr %29, null
  br i1 %.not, label %55, label %31

31:                                               ; preds = %28
  %32 = load i32, ptr %18, align 4, !tbaa !37
  %.not31 = icmp eq i32 %32, 0
  %33 = select i1 %.not31, i32 0, i32 33
  %34 = getelementptr inbounds nuw i8, ptr %0, i64 136
  store i32 %33, ptr %34, align 8, !tbaa !43
  %35 = load i32, ptr %8, align 8, !tbaa !28
  %36 = icmp eq i32 %35, 107
  %37 = select i1 %36, i32 2, i32 1
  %38 = getelementptr inbounds nuw i8, ptr %0, i64 156
  store i32 %37, ptr %38, align 4, !tbaa !44
  %39 = getelementptr inbounds nuw i8, ptr %4, i64 8
  tail call void @ff_blockdsp_init(ptr noundef nonnull %39) #11
  %40 = getelementptr inbounds nuw i8, ptr %0, i64 64
  %41 = load i32, ptr %40, align 8, !tbaa !45
  call void @ff_hpeldsp_init(ptr noundef nonnull %2, i32 noundef %41) #11
  %42 = getelementptr inbounds nuw i8, ptr %2, i64 32
  %43 = load ptr, ptr %42, align 8, !tbaa !46
  %44 = getelementptr inbounds nuw i8, ptr %4, i64 40
  store ptr %43, ptr %44, align 8, !tbaa !47
  %45 = getelementptr inbounds nuw i8, ptr %4, i64 48
  call void @ff_binkdsp_init(ptr noundef nonnull %45) #11
  %46 = call fastcc i32 @init_bundles(ptr noundef nonnull %4) #12
  %47 = icmp slt i32 %46, 0
  br i1 %47, label %55, label %48

48:                                               ; preds = %31
  %49 = load i32, ptr %8, align 8, !tbaa !28
  %50 = icmp eq i32 %49, 98
  br i1 %50, label %51, label %53

51:                                               ; preds = %48
  %52 = call i32 @pthread_once(ptr noundef nonnull @decode_init.binkb_init_once, ptr noundef nonnull @binkb_calc_quant) #11
  br label %53

53:                                               ; preds = %51, %48
  %54 = call i32 @pthread_once(ptr noundef nonnull @decode_init.init_static_once, ptr noundef nonnull @bink_init_vlcs) #11
  br label %55

55:                                               ; preds = %31, %28, %13, %53, %12
  %.0 = phi i32 [ -1094995529, %12 ], [ 0, %53 ], [ %26, %13 ], [ -12, %28 ], [ %46, %31 ]
  call void @llvm.lifetime.end.p0(i64 416, ptr nonnull %2) #11
  ret i32 %.0
}